target datalayout = "e-m:e-p270:32:32-p271:32:32-p272:64:64-i64:64-i128:128-f80:128-n8:16:32:64-S128"
target triple = "x86_64-pc-linux-gnu"

%struct.plugin_feature_t = type { ptr, ptr, i64 }

@.str.3 = private unnamed_addr constant [2 x i8] c",\00", align 1
@.str.19 = private unnamed_addr constant [8 x i8] c"Feature\00", align 1
@.str.25 = private unnamed_addr constant [43 x i8] c"Invalid FEATURE data, no type Feature (%s)\00", align 1
@.str.26 = private unnamed_addr constant [7 x i8] c"Helper\00", align 1
@.str.27 = private unnamed_addr constant [6 x i8] c"Flags\00", align 1
@.str.28 = private unnamed_addr constant [11 x i8] c"rebootless\00", align 1
@.str.29 = private unnamed_addr constant [40 x i8] c"helpers.conf: Ignoring invalid Flags=%s\00", align 1
@.str.31 = private unnamed_addr constant [24 x i8] c"node_features_helpers.c\00", align 1
@__func__._feature_create = private unnamed_addr constant [16 x i8] c"_feature_create\00", align 1

; Function Attrs: nounwind uwtable
define internal ptr @_feature_create(ptr noundef %0, ptr noundef %1, i64 noundef %2) #0 {
  %4 = alloca ptr, align 8
  %5 = alloca ptr, align 8
  %6 = alloca i64, align 8
  %7 = alloca ptr, align 8
  store ptr %0, ptr %4, align 8
  store ptr %1, ptr %5, align 8
  store i64 %2, ptr %6, align 8
  call void @llvm.lifetime.start.p0(i64 8, ptr %7) #8
  %8 = call ptr @slurm_xcalloc(i64 noundef 1, i64 noundef 24, i1 noundef zeroext true, i1 noundef zeroext false, ptr noundef @.str.31, i32 noundef 170, ptr noundef @__func__._feature_create)
  store ptr %8, ptr %7, align 8
  %9 = load ptr, ptr %4, align 8
  %10 = call ptr @xstrdup(ptr noundef %9)
  %11 = load ptr, ptr %7, align 8
  %12 = getelementptr inbounds nuw %struct.plugin_feature_t, ptr %11, i32 0, i32 0
  store ptr %10, ptr %12, align 8
  %13 = load ptr, ptr %5, align 8
  %14 = call ptr @xstrdup(ptr noundef %13)
  %15 = load ptr, ptr %7, align 8
  %16 = getelementptr inbounds nuw %struct.plugin_feature_t, ptr %15, i32 0, i32 1
  store ptr %14, ptr %16, align 8
  %17 = load i64, ptr %6, align 8
  %18 = load ptr, ptr %7, align 8
  %19 = getelementptr inbounds nuw %struct.plugin_feature_t, ptr %18, i32 0, i32 2
  store i64 %17, ptr %19, align 8
  %20 = load ptr, ptr %7, align 8
  call void @llvm.lifetime.end.p0(i64 8, ptr %7) #8
  ret ptr %20
}

; Function Attrs: nounwind uwtable
define internal i32 @_parse_feature(ptr noundef %0, i32 noundef %1, ptr noundef %2, ptr noundef %3, ptr noundef %4, ptr noundef %5) #0 {
  %7 = alloca ptr, align 8
  %8 = alloca i32, align 4
  %9 = alloca ptr, align 8
  %10 = alloca ptr, align 8
  %11 = alloca ptr, align 8
  %12 = alloca ptr, align 8
  %13 = alloca ptr, align 8
  %14 = alloca ptr, align 8
  %15 = alloca ptr, align 8
  %16 = alloca i32, align 4
  %17 = alloca ptr, align 8
  %18 = alloca ptr, align 8
  %19 = alloca ptr, align 8
  %20 = alloca ptr, align 8
  %21 = alloca i64, align 8
  store ptr %0, ptr %7, align 8
  store i32 %1, ptr %8, align 4
  store ptr %2, ptr %9, align 8
  store ptr %3, ptr %10, align 8
  store ptr %4, ptr %11, align 8
  store ptr %5, ptr %12, align 8
  call void @llvm.lifetime.start.p0(i64 8, ptr %13) #8
  store ptr null, ptr %13, align 8
  call void @llvm.lifetime.start.p0(i64 8, ptr %14) #8
  store ptr null, ptr %14, align 8
  call void @llvm.lifetime.start.p0(i64 8, ptr %15) #8
  store ptr null, ptr %15, align 8
  call void @llvm.lifetime.start.p0(i64 4, ptr %16) #8
  store i32 -1, ptr %16, align 4
  call void @llvm.lifetime.start.p0(i64 8, ptr %17) #8
  call void @llvm.lifetime.start.p0(i64 8, ptr %18) #8
  store ptr null, ptr %18, align 8
  call void @llvm.lifetime.start.p0(i64 8, ptr %19) #8
  store ptr null, ptr %19, align 8
  call void @llvm.lifetime.start.p0(i64 8, ptr %20) #8
  store ptr null, ptr %20, align 8
  call void @llvm.lifetime.start.p0(i64 8, ptr %21) #8
  store i64 0, ptr %21, align 8
  %22 = call ptr @s_p_hashtbl_create(ptr noundef @feature_options)
  store ptr %22, ptr %13, align 8
  %23 = load ptr, ptr %13, align 8
  %24 = load ptr, ptr %12, align 8
  %25 = load ptr, ptr %24, align 8
  %26 = load ptr, ptr %12, align 8
  %27 = call i32 @s_p_parse_line(ptr noundef %23, ptr noundef %25, ptr noundef %26)
  %28 = icmp ne i32 %27, 0
  br i1 %28, label %30, label %29

29:                                               ; preds = %6
  br label %77

30:                                               ; preds = %6
  %31 = load ptr, ptr %10, align 8
  %32 = icmp ne ptr %31, null
  br i1 %32, label %33, label %36

33:                                               ; preds = %30
  %34 = load ptr, ptr %10, align 8
  %35 = call ptr @xstrdup(ptr noundef %34)
  store ptr %35, ptr %17, align 8
  br label %44

36:                                               ; preds = %30
  %37 = load ptr, ptr %13, align 8
  %38 = call i32 @s_p_get_string(ptr noundef %17, ptr noundef @.str.19, ptr noundef %37)
  %39 = icmp ne i32 %38, 0
  br i1 %39, label %43, label %40

40:                                               ; preds = %36
  %41 = load ptr, ptr %11, align 8
  %42 = call i32 (ptr, ...) @error(ptr noundef @.str.25, ptr noundef %41)
  br label %77

43:                                               ; preds = %36
  br label %44

44:                                               ; preds = %43, %33
  %45 = load ptr, ptr %13, align 8
  %46 = call i32 @s_p_get_string(ptr noundef %15, ptr noundef @.str.26, ptr noundef %45)
  %47 = load ptr, ptr %13, align 8
  %48 = call i32 @s_p_get_string(ptr noundef %14, ptr noundef @.str.27, ptr noundef %47)
  %49 = icmp ne i32 %48, 0
  br i1 %49, label %50, label %71

50:                                               ; preds = %44
  %51 = load ptr, ptr %14, align 8
  %52 = call ptr @xstrdup(ptr noundef %51)
  store ptr %52, ptr %18, align 8
  %53 = load ptr, ptr %18, align 8
  %54 = call ptr @strtok_r(ptr noundef %53, ptr noundef @.str.3, ptr noundef %19) #8
  store ptr %54, ptr %20, align 8
  br label %55

55:                                               ; preds = %68, %50
  %56 = load ptr, ptr %20, align 8
  %57 = icmp ne ptr %56, null
  br i1 %57, label %58, label %70

58:                                               ; preds = %55
  %59 = load ptr, ptr %20, align 8
  %60 = call i32 @xstrcasecmp(ptr noundef %59, ptr noundef @.str.28)
  %61 = icmp ne i32 %60, 0
  br i1 %61, label %65, label %62

62:                                               ; preds = %58
  %63 = load i64, ptr %21, align 8
  %64 = or i64 %63, 1
  store i64 %64, ptr %21, align 8
  br label %68

65:                                               ; preds = %58
  %66 = load ptr, ptr %20, align 8
  %67 = call i32 (ptr, ...) @error(ptr noundef @.str.29, ptr noundef %66)
  br label %68

68:                                               ; preds = %65, %62
  %69 = call ptr @strtok_r(ptr noundef null, ptr noundef @.str.3, ptr noundef %19) #8
  store ptr %69, ptr %20, align 8
  br label %55, !llvm.loop !23

70:                                               ; preds = %55
  br label %71

71:                                               ; preds = %70, %44
  %72 = load ptr, ptr %17, align 8
  %73 = load ptr, ptr %15, align 8
  %74 = load i64, ptr %21, align 8
  %75 = call ptr @_feature_create(ptr noundef %72, ptr noundef %73, i64 noundef %74)
  %76 = load ptr, ptr %7, align 8
  store ptr %75, ptr %76, align 8
  call void @slurm_xfree(ptr noundef %15)
  call void @slurm_xfree(ptr noundef %18)
  call void @slurm_xfree(ptr noundef %14)
  store i32 1, ptr %16, align 4
  br label %77

77:                                               ; preds = %71, %40, %29
  call void @slurm_xfree(ptr noundef %17)
  %78 = load ptr, ptr %13, align 8
  call void @s_p_hashtbl_destroy(ptr noundef %78)
  %79 = load i32, ptr %16, align 4
  call void @llvm.lifetime.end.p0(i64 8, ptr %21) #8
  call void @llvm.lifetime.end.p0(i64 8, ptr %20) #8
  call void @llvm.lifetime.end.p0(i64 8, ptr %19) #8
  call void @llvm.lifetime.end.p0(i64 8, ptr %18) #8
  call void @llvm.lifetime.end.p0(i64 8, ptr %17) #8
  call void @llvm.lifetime.end.p0(i64 4, ptr %16) #8
  call void @llvm.lifetime.end.p0(i64 8, ptr %15) #8
  call void @llvm.lifetime.end.p0(i64 8, ptr %14) #8
  call void @llvm.lifetime.end.p0(i64 8, ptr %13) #8
  ret i32 %79
}