; Function Attrs: nounwind uwtable
define internal range(i32 -1, 2) i32 @_parse_feature(ptr noundef writeonly captures(none) %0, i32 %1, ptr readnone captures(none) %2, ptr noundef %3, ptr noundef %4, ptr noundef %5) #0 {
  %7 = alloca ptr, align 8
  %8 = alloca ptr, align 8
  %9 = alloca ptr, align 8
  %10 = alloca ptr, align 8
  %11 = alloca ptr, align 8
  call void @llvm.lifetime.start.p0(i64 8, ptr nonnull %7) #10
  store ptr null, ptr %7, align 8
  call void @llvm.lifetime.start.p0(i64 8, ptr nonnull %8) #10
  store ptr null, ptr %8, align 8
  call void @llvm.lifetime.start.p0(i64 8, ptr nonnull %9) #10
  call void @llvm.lifetime.start.p0(i64 8, ptr nonnull %10) #10
  store ptr null, ptr %10, align 8
  call void @llvm.lifetime.start.p0(i64 8, ptr nonnull %11) #10
  store ptr null, ptr %11, align 8
  %12 = tail call ptr @s_p_hashtbl_create(ptr noundef nonnull @feature_options) #10
  %13 = load ptr, ptr %5, align 8
  %14 = tail call i32 @s_p_parse_line(ptr noundef %12, ptr noundef %13, ptr noundef nonnull %5) #10
  %.not = icmp eq i32 %14, 0
  br i1 %.not, label %41, label %15

15:                                               ; preds = %6
  %.not19 = icmp eq ptr %3, null
  br i1 %.not19, label %18, label %16

16:                                               ; preds = %15
  %17 = tail call ptr @xstrdup(ptr noundef nonnull %3) #10
  store ptr %17, ptr %9, align 8
  br label %22

18:                                               ; preds = %15
  %19 = call i32 @s_p_get_string(ptr noundef nonnull %9, ptr noundef nonnull @.str.19, ptr noundef %12) #10
  %.not20 = icmp eq i32 %19, 0
  br i1 %.not20, label %20, label %22

20:                                               ; preds = %18
  %21 = call i32 (ptr, ...) @error(ptr noundef nonnull @.str.25, ptr noundef %4) #10
  br label %41

22:                                               ; preds = %18, %16
  %23 = call i32 @s_p_get_string(ptr noundef nonnull %8, ptr noundef nonnull @.str.26, ptr noundef %12) #10
  %24 = call i32 @s_p_get_string(ptr noundef nonnull %7, ptr noundef nonnull @.str.27, ptr noundef %12) #10
  %.not21 = icmp eq i32 %24, 0
  br i1 %.not21, label %.loopexit, label %25

25:                                               ; preds = %22
  %26 = load ptr, ptr %7, align 8
  %27 = call ptr @xstrdup(ptr noundef %26) #10
  store ptr %27, ptr %10, align 8
  %28 = call ptr @strtok_r(ptr noundef %27, ptr noundef nonnull @.str.3, ptr noundef nonnull %11) #10
  %.not2224 = icmp eq ptr %28, null
  br i1 %.not2224, label %.loopexit, label %.lr.ph

.lr.ph:                                           ; preds = %25, %32
  %.126 = phi i64 [ %.2, %32 ], [ 0, %25 ]
  %.01625 = phi ptr [ %33, %32 ], [ %28, %25 ]
  %29 = call i32 @xstrcasecmp(ptr noundef nonnull %.01625, ptr noundef nonnull @.str.28) #10
  %.not23 = icmp eq i32 %29, 0
  br i1 %.not23, label %32, label %30

30:                                               ; preds = %.lr.ph
  %31 = call i32 (ptr, ...) @error(ptr noundef nonnull @.str.29, ptr noundef nonnull %.01625) #10
  br label %32

32:                                               ; preds = %.lr.ph, %30
  %.2 = phi i64 [ %.126, %30 ], [ 1, %.lr.ph ]
  %33 = call ptr @strtok_r(ptr noundef null, ptr noundef nonnull @.str.3, ptr noundef nonnull %11) #10
  %.not22 = icmp eq ptr %33, null
  br i1 %.not22, label %.loopexit, label %.lr.ph, !llvm.loop !23

.loopexit:                                        ; preds = %32, %25, %22
  %.0 = phi i64 [ 0, %22 ], [ 0, %25 ], [ %.2, %32 ]
  %34 = load ptr, ptr %9, align 8
  %35 = load ptr, ptr %8, align 8
  %36 = call ptr @slurm_xcalloc(i64 noundef 1, i64 noundef 24, i1 noundef zeroext true, i1 noundef zeroext false, ptr noundef nonnull @.str.31, i32 noundef 170, ptr noundef nonnull @__func__._feature_create) #10
  %37 = call ptr @xstrdup(ptr noundef %34) #10
  store ptr %37, ptr %36, align 8
  %38 = call ptr @xstrdup(ptr noundef %35) #10
  %39 = getelementptr inbounds nuw i8, ptr %36, i64 8
  store ptr %38, ptr %39, align 8
  %40 = getelementptr inbounds nuw i8, ptr %36, i64 16
  store i64 %.0, ptr %40, align 8
  store ptr %36, ptr %0, align 8
  call void @slurm_xfree(ptr noundef nonnull %8) #10
  call void @slurm_xfree(ptr noundef nonnull %10) #10
  call void @slurm_xfree(ptr noundef nonnull %7) #10
  br label %41

41:                                               ; preds = %6, %.loopexit, %20
  %.017 = phi i32 [ 1, %.loopexit ], [ -1, %20 ], [ -1, %6 ]
  call void @slurm_xfree(ptr noundef nonnull %9) #10
  call void @s_p_hashtbl_destroy(ptr noundef %12) #10
  call void @llvm.lifetime.end.p0(i64 8, ptr nonnull %11) #10
  call void @llvm.lifetime.end.p0(i64 8, ptr nonnull %10) #10
  call void @llvm.lifetime.end.p0(i64 8, ptr nonnull %9) #10
  call void @llvm.lifetime.end.p0(i64 8, ptr nonnull %8) #10
  call void @llvm.lifetime.end.p0(i64 8, ptr nonnull %7) #10
  ret i32 %.017
}